target datalayout = "e-m:e-p270:32:32-p271:32:32-p272:64:64-i64:64-i128:128-f80:128-n8:16:32:64-S128"
target triple = "x86_64-pc-linux-gnu"

%"struct.OpenSubdiv::v3_6_0::Osd::BufferDescriptor" = type { i32, i32, i32 }

; Function Attrs: mustprogress uwtable
define noundef zeroext i1 @_ZN10OpenSubdiv6v3_6_03Osd12OmpEvaluator12EvalStencilsEPKfRKNS1_16BufferDescriptorEPfS7_S8_S7_S8_S7_S8_S7_S8_S7_S8_S7_PKiSA_SA_S4_S4_S4_S4_S4_S4_ii(ptr noundef %0, ptr noundef nonnull align 4 dereferenceable(12) %1, ptr noundef %2, ptr noundef nonnull align 4 dereferenceable(12) %3, ptr noundef %4, ptr noundef nonnull align 4 dereferenceable(12) %5, ptr noundef %6, ptr noundef nonnull align 4 dereferenceable(12) %7, ptr noundef %8, ptr noundef nonnull align 4 dereferenceable(12) %9, ptr noundef %10, ptr noundef nonnull align 4 dereferenceable(12) %11, ptr noundef %12, ptr noundef nonnull align 4 dereferenceable(12) %13, ptr noundef %14, ptr noundef %15, ptr noundef %16, ptr noundef %17, ptr noundef %18, ptr noundef %19, ptr noundef %20, ptr noundef %21, ptr noundef %22, i32 noundef %23, i32 noundef %24) #4 align 2 {
  %26 = alloca i1, align 1
  %27 = alloca ptr, align 8
  %28 = alloca ptr, align 8
  %29 = alloca ptr, align 8
  %30 = alloca ptr, align 8
  %31 = alloca ptr, align 8
  %32 = alloca ptr, align 8
  %33 = alloca ptr, align 8
  %34 = alloca ptr, align 8
  %35 = alloca ptr, align 8
  %36 = alloca ptr, align 8
  %37 = alloca ptr, align 8
  %38 = alloca ptr, align 8
  %39 = alloca ptr, align 8
  %40 = alloca ptr, align 8
  %41 = alloca ptr, align 8
  %42 = alloca ptr, align 8
  %43 = alloca ptr, align 8
  %44 = alloca ptr, align 8
  %45 = alloca ptr, align 8
  %46 = alloca ptr, align 8
  %47 = alloca ptr, align 8
  %48 = alloca ptr, align 8
  %49 = alloca ptr, align 8
  %50 = alloca i32, align 4
  %51 = alloca i32, align 4
  store ptr %0, ptr %27, align 8
  store ptr %1, ptr %28, align 8
  store ptr %2, ptr %29, align 8
  store ptr %3, ptr %30, align 8
  store ptr %4, ptr %31, align 8
  store ptr %5, ptr %32, align 8
  store ptr %6, ptr %33, align 8
  store ptr %7, ptr %34, align 8
  store ptr %8, ptr %35, align 8
  store ptr %9, ptr %36, align 8
  store ptr %10, ptr %37, align 8
  store ptr %11, ptr %38, align 8
  store ptr %12, ptr %39, align 8
  store ptr %13, ptr %40, align 8
  store ptr %14, ptr %41, align 8
  store ptr %15, ptr %42, align 8
  store ptr %16, ptr %43, align 8
  store ptr %17, ptr %44, align 8
  store ptr %18, ptr %45, align 8
  store ptr %19, ptr %46, align 8
  store ptr %20, ptr %47, align 8
  store ptr %21, ptr %48, align 8
  store ptr %22, ptr %49, align 8
  store i32 %23, ptr %50, align 4
  store i32 %24, ptr %51, align 4
  %52 = load i32, ptr %51, align 4
  %53 = load i32, ptr %50, align 4
  %54 = icmp sle i32 %52, %53
  br i1 %54, label %55, label %56

55:                                               ; preds = %25
  store i1 true, ptr %26, align 1
  br label %136

56:                                               ; preds = %25
  %57 = load ptr, ptr %28, align 8
  %58 = getelementptr inbounds nuw %"struct.OpenSubdiv::v3_6_0::Osd::BufferDescriptor", ptr %57, i32 0, i32 1
  %59 = load i32, ptr %58, align 4
  %60 = load ptr, ptr %30, align 8
  %61 = getelementptr inbounds nuw %"struct.OpenSubdiv::v3_6_0::Osd::BufferDescriptor", ptr %60, i32 0, i32 1
  %62 = load i32, ptr %61, align 4
  %63 = icmp ne i32 %59, %62
  br i1 %63, label %64, label %65

64:                                               ; preds = %56
  store i1 false, ptr %26, align 1
  br label %136

65:                                               ; preds = %56
  %66 = load ptr, ptr %28, align 8
  %67 = getelementptr inbounds nuw %"struct.OpenSubdiv::v3_6_0::Osd::BufferDescriptor", ptr %66, i32 0, i32 1
  %68 = load i32, ptr %67, align 4
  %69 = load ptr, ptr %32, align 8
  %70 = getelementptr inbounds nuw %"struct.OpenSubdiv::v3_6_0::Osd::BufferDescriptor", ptr %69, i32 0, i32 1
  %71 = load i32, ptr %70, align 4
  %72 = icmp ne i32 %68, %71
  br i1 %72, label %73, label %74

73:                                               ; preds = %65
  store i1 false, ptr %26, align 1
  br label %136

74:                                               ; preds = %65
  %75 = load ptr, ptr %28, align 8
  %76 = getelementptr inbounds nuw %"struct.OpenSubdiv::v3_6_0::Osd::BufferDescriptor", ptr %75, i32 0, i32 1
  %77 = load i32, ptr %76, align 4
  %78 = load ptr, ptr %34, align 8
  %79 = getelementptr inbounds nuw %"struct.OpenSubdiv::v3_6_0::Osd::BufferDescriptor", ptr %78, i32 0, i32 1
  %80 = load i32, ptr %79, align 4
  %81 = icmp ne i32 %77, %80
  br i1 %81, label %82, label %83

82:                                               ; preds = %74
  store i1 false, ptr %26, align 1
  br label %136

83:                                               ; preds = %74
  %84 = load ptr, ptr %28, align 8
  %85 = getelementptr inbounds nuw %"struct.OpenSubdiv::v3_6_0::Osd::BufferDescriptor", ptr %84, i32 0, i32 1
  %86 = load i32, ptr %85, align 4
  %87 = load ptr, ptr %36, align 8
  %88 = getelementptr inbounds nuw %"struct.OpenSubdiv::v3_6_0::Osd::BufferDescriptor", ptr %87, i32 0, i32 1
  %89 = load i32, ptr %88, align 4
  %90 = icmp ne i32 %86, %89
  br i1 %90, label %91, label %92

91:                                               ; preds = %83
  store i1 false, ptr %26, align 1
  br label %136

92:                                               ; preds = %83
  %93 = load ptr, ptr %28, align 8
  %94 = getelementptr inbounds nuw %"struct.OpenSubdiv::v3_6_0::Osd::BufferDescriptor", ptr %93, i32 0, i32 1
  %95 = load i32, ptr %94, align 4
  %96 = load ptr, ptr %38, align 8
  %97 = getelementptr inbounds nuw %"struct.OpenSubdiv::v3_6_0::Osd::BufferDescriptor", ptr %96, i32 0, i32 1
  %98 = load i32, ptr %97, align 4
  %99 = icmp ne i32 %95, %98
  br i1 %99, label %100, label %101

100:                                              ; preds = %92
  store i1 false, ptr %26, align 1
  br label %136

101:                                              ; preds = %92
  %102 = load ptr, ptr %28, align 8
  %103 = getelementptr inbounds nuw %"struct.OpenSubdiv::v3_6_0::Osd::BufferDescriptor", ptr %102, i32 0, i32 1
  %104 = load i32, ptr %103, align 4
  %105 = load ptr, ptr %40, align 8
  %106 = getelementptr inbounds nuw %"struct.OpenSubdiv::v3_6_0::Osd::BufferDescriptor", ptr %105, i32 0, i32 1
  %107 = load i32, ptr %106, align 4
  %108 = icmp ne i32 %104, %107
  br i1 %108, label %109, label %110

109:                                              ; preds = %101
  store i1 false, ptr %26, align 1
  br label %136

110:                                              ; preds = %101
  %111 = load ptr, ptr %27, align 8
  %112 = load ptr, ptr %28, align 8
  %113 = load ptr, ptr %29, align 8
  %114 = load ptr, ptr %30, align 8
  %115 = load ptr, ptr %31, align 8
  %116 = load ptr, ptr %32, align 8
  %117 = load ptr, ptr %33, align 8
  %118 = load ptr, ptr %34, align 8
  %119 = load ptr, ptr %35, align 8
  %120 = load ptr, ptr %36, align 8
  %121 = load ptr, ptr %37, align 8
  %122 = load ptr, ptr %38, align 8
  %123 = load ptr, ptr %39, align 8
  %124 = load ptr, ptr %40, align 8
  %125 = load ptr, ptr %41, align 8
  %126 = load ptr, ptr %42, align 8
  %127 = load ptr, ptr %43, align 8
  %128 = load ptr, ptr %44, align 8
  %129 = load ptr, ptr %45, align 8
  %130 = load ptr, ptr %46, align 8
  %131 = load ptr, ptr %47, align 8
  %132 = load ptr, ptr %48, align 8
  %133 = load ptr, ptr %49, align 8
  %134 = load i32, ptr %50, align 4
  %135 = load i32, ptr %51, align 4
  call void @_ZN10OpenSubdiv6v3_6_03Osd15OmpEvalStencilsEPKfRKNS1_16BufferDescriptorEPfS6_S7_S6_S7_S6_S7_S6_S7_S6_S7_S6_PKiS9_S9_S3_S3_S3_S3_S3_S3_ii(ptr noundef %111, ptr noundef nonnull align 4 dereferenceable(12) %112, ptr noundef %113, ptr noundef nonnull align 4 dereferenceable(12) %114, ptr noundef %115, ptr noundef nonnull align 4 dereferenceable(12) %116, ptr noundef %117, ptr noundef nonnull align 4 dereferenceable(12) %118, ptr noundef %119, ptr noundef nonnull align 4 dereferenceable(12) %120, ptr noundef %121, ptr noundef nonnull align 4 dereferenceable(12) %122, ptr noundef %123, ptr noundef nonnull align 4 dereferenceable(12) %124, ptr noundef %125, ptr noundef %126, ptr noundef %127, ptr noundef %128, ptr noundef %129, ptr noundef %130, ptr noundef %131, ptr noundef %132, ptr noundef %133, i32 noundef %134, i32 noundef %135)
  store i1 true, ptr %26, align 1
  br label %136

136:                                              ; preds = %110, %109, %100, %91, %82, %73, %64, %55
  %137 = load i1, ptr %26, align 1
  ret i1 %137
}